; Function Attrs: mustprogress nounwind uwtable
define hidden noundef zeroext i1 @_ZN18VM_RedefineClasses45rewrite_cp_refs_in_type_annotations_typeArrayEP5ArrayIhERiPKc(ptr nocapture noundef nonnull readonly align 8 dereferenceable(192) %0, ptr noundef %1, ptr nocapture noundef nonnull align 4 dereferenceable(4) %2, ptr noundef %3) local_unnamed_addr #0 align 2 {
  %5 = load i32, ptr %2, align 4
  %6 = add nsw i32 %5, 2
  %7 = load i32, ptr %1, align 4
  %8 = icmp sgt i32 %6, %7
  br i1 %8, label %9, label %12

9:                                                ; preds = %4
  %10 = load volatile ptr, ptr getelementptr inbounds (i8, ptr @_ZN16LogTagSetMappingILN6LogTag4typeE125ELS1_16ELS1_4ELS1_0ELS1_0ELS1_0EE7_tagsetE, i64 56), align 8
  %.not23 = icmp eq ptr %10, null
  br i1 %.not23, label %32, label %11

11:                                               ; preds = %9
  tail call void (ptr, ...) @_ZN7LogImplILN6LogTag4typeE125ELS1_16ELS1_4ELS1_0ELS1_0ELS1_0EE5writeILN8LogLevel4typeE2EEEvPKcz(ptr noundef nonnull @.str.75)
  br label %32

12:                                               ; preds = %4
  %13 = getelementptr inbounds i8, ptr %1, i64 4
  %14 = sext i32 %5 to i64
  %15 = getelementptr inbounds i8, ptr %13, i64 %14
  %.0.i.i.i = load i16, ptr %15, align 1
  %16 = tail call noundef i16 @llvm.bswap.i16(i16 %.0.i.i.i)
  store i32 %6, ptr %2, align 4
  %17 = load volatile ptr, ptr getelementptr inbounds (i8, ptr @_ZN16LogTagSetMappingILN6LogTag4typeE125ELS1_16ELS1_4ELS1_0ELS1_0ELS1_0EE7_tagsetE, i64 56), align 8
  %.not20 = icmp eq ptr %17, null
  %.pre = zext i16 %16 to i32
  br i1 %.not20, label %._crit_edge28, label %18

18:                                               ; preds = %12
  tail call void (ptr, ...) @_ZN7LogImplILN6LogTag4typeE125ELS1_16ELS1_4ELS1_0ELS1_0ELS1_0EE5writeILN8LogLevel4typeE2EEEvPKcz(ptr noundef nonnull @.str.117, i32 noundef %.pre)
  br label %._crit_edge28

._crit_edge28:                                    ; preds = %12, %18
  %.not26 = icmp eq i16 %.0.i.i.i, 0
  br i1 %.not26, label %._crit_edge, label %.lr.ph.preheader

.lr.ph.preheader:                                 ; preds = %._crit_edge28
  %umax = tail call i32 @llvm.umax.i32(i32 %.pre, i32 1)
  br label %.lr.ph

.lr.ph:                                           ; preds = %.lr.ph.preheader, %25
  %.025 = phi i32 [ %26, %25 ], [ 0, %.lr.ph.preheader ]
  %19 = tail call noundef zeroext i1 @_ZN18VM_RedefineClasses27skip_type_annotation_targetEP5ArrayIhERiPKc(ptr nonnull readonly align 8 poison, ptr noundef nonnull %1, ptr noundef nonnull align 4 dereferenceable(4) %2, ptr noundef %3)
  br i1 %19, label %20, label %_ZN18VM_RedefineClasses41rewrite_cp_refs_in_type_annotation_structEP5ArrayIhERiPKc.exit.thread

20:                                               ; preds = %.lr.ph
  %21 = tail call noundef zeroext i1 @_ZN18VM_RedefineClasses30skip_type_annotation_type_pathEP5ArrayIhERi(ptr nonnull readonly align 8 poison, ptr noundef nonnull %1, ptr noundef nonnull align 4 dereferenceable(4) %2)
  br i1 %21, label %_ZN18VM_RedefineClasses41rewrite_cp_refs_in_type_annotation_structEP5ArrayIhERiPKc.exit, label %_ZN18VM_RedefineClasses41rewrite_cp_refs_in_type_annotation_structEP5ArrayIhERiPKc.exit.thread

_ZN18VM_RedefineClasses41rewrite_cp_refs_in_type_annotation_structEP5ArrayIhERiPKc.exit: ; preds = %20
  %22 = tail call noundef zeroext i1 @_ZN18VM_RedefineClasses36rewrite_cp_refs_in_annotation_structEP5ArrayIhERi(ptr noundef nonnull readonly align 8 dereferenceable(192) %0, ptr noundef nonnull %1, ptr noundef nonnull align 4 dereferenceable(4) %2)
  br i1 %22, label %25, label %_ZN18VM_RedefineClasses41rewrite_cp_refs_in_type_annotation_structEP5ArrayIhERiPKc.exit.thread

_ZN18VM_RedefineClasses41rewrite_cp_refs_in_type_annotation_structEP5ArrayIhERiPKc.exit.thread: ; preds = %20, %.lr.ph, %_ZN18VM_RedefineClasses41rewrite_cp_refs_in_type_annotation_structEP5ArrayIhERiPKc.exit
  %23 = load volatile ptr, ptr getelementptr inbounds (i8, ptr @_ZN16LogTagSetMappingILN6LogTag4typeE125ELS1_16ELS1_4ELS1_0ELS1_0ELS1_0EE7_tagsetE, i64 56), align 8
  %.not22 = icmp eq ptr %23, null
  br i1 %.not22, label %32, label %24

24:                                               ; preds = %_ZN18VM_RedefineClasses41rewrite_cp_refs_in_type_annotation_structEP5ArrayIhERiPKc.exit.thread
  tail call void (ptr, ...) @_ZN7LogImplILN6LogTag4typeE125ELS1_16ELS1_4ELS1_0ELS1_0ELS1_0EE5writeILN8LogLevel4typeE2EEEvPKcz(ptr noundef nonnull @.str.118, i32 noundef %.025)
  br label %32

25:                                               ; preds = %_ZN18VM_RedefineClasses41rewrite_cp_refs_in_type_annotation_structEP5ArrayIhERiPKc.exit
  %26 = add nuw nsw i32 %.025, 1
  %exitcond.not = icmp eq i32 %26, %umax
  br i1 %exitcond.not, label %._crit_edge, label %.lr.ph, !llvm.loop !61

._crit_edge:                                      ; preds = %25, %._crit_edge28
  %27 = load i32, ptr %2, align 4
  %28 = load i32, ptr %1, align 4
  %.not = icmp eq i32 %27, %28
  br i1 %.not, label %32, label %29

29:                                               ; preds = %._crit_edge
  %30 = load volatile ptr, ptr getelementptr inbounds (i8, ptr @_ZN16LogTagSetMappingILN6LogTag4typeE125ELS1_16ELS1_4ELS1_0ELS1_0ELS1_0EE7_tagsetE, i64 56), align 8
  %.not21 = icmp eq ptr %30, null
  br i1 %.not21, label %32, label %31

31:                                               ; preds = %29
  tail call void (ptr, ...) @_ZN7LogImplILN6LogTag4typeE125ELS1_16ELS1_4ELS1_0ELS1_0ELS1_0EE5writeILN8LogLevel4typeE2EEEvPKcz(ptr noundef nonnull @.str.119, i32 noundef %27, i32 noundef %28)
  br label %32

32:                                               ; preds = %._crit_edge, %31, %29, %24, %_ZN18VM_RedefineClasses41rewrite_cp_refs_in_type_annotation_structEP5ArrayIhERiPKc.exit.thread, %11, %9
  %.018 = phi i1 [ false, %9 ], [ false, %11 ], [ false, %_ZN18VM_RedefineClasses41rewrite_cp_refs_in_type_annotation_structEP5ArrayIhERiPKc.exit.thread ], [ false, %24 ], [ false, %29 ], [ false, %31 ], [ true, %._crit_edge ]
  ret i1 %.018
}